; Function Attrs: nounwind uwtable
define internal fastcc range(i32 0, 2) i32 @LZ4IO_decompressDstFile(ptr noundef nonnull writeonly captures(none) %0, ptr noundef byval(%struct.dRess_t) align 8 captures(none) %1, ptr noundef %2, ptr noundef %3, ptr noundef readonly captures(none) %4) unnamed_addr #11 {
  %6 = alloca %struct.stat, align 8
  %7 = alloca [2 x %struct.timespec], align 16
  %8 = alloca %struct.stat, align 8
  call void @llvm.lifetime.start.p0(i64 144, ptr nonnull %8) #24
  %9 = tail call fastcc ptr @LZ4IO_openDstFile(ptr noundef %3, ptr noundef %4)
  %10 = icmp eq ptr %9, null
  br i1 %10, label %UTIL_setFileStat.exit, label %11

11:                                               ; preds = %5
  %12 = icmp eq ptr %2, null
  br i1 %12, label %LZ4IO_isStdin.exit.thread, label %LZ4IO_isStdin.exit

LZ4IO_isStdin.exit:                               ; preds = %11
  %13 = tail call i32 @strcmp(ptr noundef nonnull readonly dereferenceable(1) %2, ptr noundef nonnull dereferenceable(6) @.str.73) #30
  %.not.i.i.not = icmp eq i32 %13, 0
  br i1 %.not.i.i.not, label %20, label %LZ4IO_isStdin.exit.thread

LZ4IO_isStdin.exit.thread:                        ; preds = %11, %LZ4IO_isStdin.exit
  %14 = call i32 @stat(ptr noundef readonly %2, ptr noundef nonnull %8) #24
  %.not.i = icmp ne i32 %14, 0
  %15 = getelementptr inbounds nuw i8, ptr %8, i64 24
  %16 = load i32, ptr %15, align 8
  %17 = and i32 %16, 61440
  %18 = icmp ne i32 %17, 32768
  %narrow.not = select i1 %.not.i, i1 true, i1 %18
  %19 = and i32 %16, 4095
  br label %20

20:                                               ; preds = %LZ4IO_isStdin.exit.thread, %LZ4IO_isStdin.exit
  %21 = phi i32 [ 0, %LZ4IO_isStdin.exit ], [ %19, %LZ4IO_isStdin.exit.thread ]
  %.not19 = phi i1 [ true, %LZ4IO_isStdin.exit ], [ %narrow.not, %LZ4IO_isStdin.exit.thread ]
  %22 = getelementptr inbounds nuw i8, ptr %1, i64 32
  store ptr %9, ptr %22, align 8, !tbaa !131
  %23 = tail call fastcc i32 @LZ4IO_decompressSrcFile(ptr noundef %0, ptr noundef nonnull byval(%struct.dRess_t) align 8 %1, ptr noundef %2, ptr noundef %4)
  %24 = tail call i32 @fclose(ptr noundef nonnull %9)
  br i1 %.not19, label %UTIL_setFileStat.exit, label %25

25:                                               ; preds = %20
  %26 = icmp eq ptr %3, null
  br i1 %26, label %LZ4IO_isDevNull.exit.thread, label %LZ4IO_isStdout.exit

LZ4IO_isStdout.exit:                              ; preds = %25
  %27 = tail call i32 @strcmp(ptr noundef nonnull readonly dereferenceable(1) %3, ptr noundef nonnull dereferenceable(7) @.str.3) #30
  %.not.i.i22.not = icmp eq i32 %27, 0
  br i1 %.not.i.i22.not, label %UTIL_setFileStat.exit, label %LZ4IO_isDevNull.exit

LZ4IO_isDevNull.exit:                             ; preds = %LZ4IO_isStdout.exit
  %28 = tail call i32 @strcmp(ptr noundef nonnull readonly dereferenceable(1) %3, ptr noundef nonnull dereferenceable(10) @.str.74) #30
  %.not.i.i24.not = icmp eq i32 %28, 0
  br i1 %.not.i.i24.not, label %UTIL_setFileStat.exit, label %LZ4IO_isDevNull.exit.thread

LZ4IO_isDevNull.exit.thread:                      ; preds = %25, %LZ4IO_isDevNull.exit
  call void @llvm.lifetime.start.p0(i64 144, ptr nonnull %6) #24
  %29 = call i32 @stat(ptr noundef readonly %3, ptr noundef nonnull %6) #24
  %.not.i.i.i = icmp ne i32 %29, 0
  %30 = getelementptr inbounds nuw i8, ptr %6, i64 24
  %31 = load i32, ptr %30, align 8
  %32 = and i32 %31, 61440
  %33 = icmp ne i32 %32, 32768
  %narrow.i.not.i = select i1 %.not.i.i.i, i1 true, i1 %33
  call void @llvm.lifetime.end.p0(i64 144, ptr nonnull %6) #24
  br i1 %narrow.i.not.i, label %UTIL_setFileStat.exit, label %34

34:                                               ; preds = %LZ4IO_isDevNull.exit.thread
  call void @llvm.lifetime.start.p0(i64 32, ptr nonnull %7) #24
  call void @llvm.memset.p0.i64(ptr noundef nonnull align 16 dereferenceable(32) %7, i8 0, i64 32, i1 false)
  %35 = getelementptr inbounds nuw i8, ptr %7, i64 8
  store i64 1073741823, ptr %35, align 8, !tbaa !109
  %36 = getelementptr inbounds nuw i8, ptr %8, i64 88
  %37 = load i64, ptr %36, align 8, !tbaa !110
  %38 = getelementptr inbounds nuw i8, ptr %7, i64 16
  store i64 %37, ptr %38, align 16, !tbaa !111
  %39 = call i32 @utimensat(i32 noundef -100, ptr noundef %3, ptr noundef nonnull %7, i32 noundef 0) #24
  call void @llvm.lifetime.end.p0(i64 32, ptr nonnull %7) #24
  %40 = getelementptr inbounds nuw i8, ptr %8, i64 28
  %41 = load i32, ptr %40, align 4, !tbaa !112
  %42 = getelementptr inbounds nuw i8, ptr %8, i64 32
  %43 = load i32, ptr %42, align 8, !tbaa !113
  %44 = call i32 @chown(ptr noundef %3, i32 noundef %41, i32 noundef %43) #24
  %45 = call i32 @chmod(ptr noundef %3, i32 noundef %21) #24
  %46 = tail call ptr @__errno_location() #31
  store i32 0, ptr %46, align 4, !tbaa !4
  br label %UTIL_setFileStat.exit

UTIL_setFileStat.exit:                            ; preds = %34, %LZ4IO_isDevNull.exit.thread, %20, %LZ4IO_isStdout.exit, %LZ4IO_isDevNull.exit, %5
  %.0 = phi i32 [ 1, %5 ], [ %23, %LZ4IO_isDevNull.exit ], [ %23, %LZ4IO_isStdout.exit ], [ %23, %20 ], [ %23, %LZ4IO_isDevNull.exit.thread ], [ %23, %34 ]
  call void @llvm.lifetime.end.p0(i64 144, ptr nonnull %8) #24
  ret i32 %.0
}